target datalayout = "e-m:e-p270:32:32-p271:32:32-p272:64:64-i64:64-i128:128-f80:128-n8:16:32:64-S128"
target triple = "x86_64-pc-linux-gnu"

%struct.exr_attr_box2i_t = type { %struct.exr_attr_v2i_t, %struct.exr_attr_v2i_t }
%struct.exr_attr_v2i_t = type { i32, i32 }
%struct._priv_exr_part_t = type { i32, i32, %struct.exr_attribute_list, ptr, ptr, ptr, ptr, ptr, ptr, ptr, ptr, ptr, ptr, ptr, ptr, ptr, ptr, %struct.exr_attr_box2i_t, %struct.exr_attr_box2i_t, i32, i32, i32, float, i32, i32, ptr, ptr, ptr, ptr, i64, i16, i16, i32, i64, i64 }
%struct.exr_attribute_list = type { i32, i32, ptr, ptr }
%struct.exr_attribute_t = type { ptr, ptr, i8, i8, [2 x i8], i32, %union.anon }
%union.anon = type { double }

@.str = private unnamed_addr constant [14 x i8] c"displayWindow\00", align 1
@.str.1 = private unnamed_addr constant [17 x i8] c"pixelAspectRatio\00", align 1
@.str.2 = private unnamed_addr constant [9 x i8] c"timecode\00", align 1
@.str.3 = private unnamed_addr constant [15 x i8] c"chromaticities\00", align 1

; Function Attrs: nounwind uwtable
define hidden i32 @internal_exr_validate_shared_attrs(ptr noundef %0, ptr noundef %1, ptr noundef %2, i32 noundef %3, ptr noundef %4, ptr noundef %5) #0 {
  %7 = alloca ptr, align 8
  %8 = alloca ptr, align 8
  %9 = alloca ptr, align 8
  %10 = alloca i32, align 4
  %11 = alloca ptr, align 8
  %12 = alloca ptr, align 8
  %13 = alloca i32, align 4
  %14 = alloca i32, align 4
  %15 = alloca ptr, align 8
  %16 = alloca ptr, align 8
  %17 = alloca i32, align 4
  store ptr %0, ptr %7, align 8, !tbaa !3
  store ptr %1, ptr %8, align 8, !tbaa !8
  store ptr %2, ptr %9, align 8, !tbaa !8
  store i32 %3, ptr %10, align 4, !tbaa !25
  store ptr %4, ptr %11, align 8, !tbaa !83
  store ptr %5, ptr %12, align 8, !tbaa !85
  call void @llvm.lifetime.start.p0(i64 4, ptr %13) #7
  call void @llvm.lifetime.start.p0(i64 4, ptr %14) #7
  call void @llvm.lifetime.start.p0(i64 8, ptr %15) #7
  call void @llvm.lifetime.start.p0(i64 8, ptr %16) #7
  call void @llvm.lifetime.start.p0(i64 4, ptr %17) #7
  store i32 0, ptr %17, align 4, !tbaa !25
  store i32 0, ptr %13, align 4, !tbaa !25
  %18 = load ptr, ptr %8, align 8, !tbaa !8
  %19 = getelementptr inbounds nuw %struct._priv_exr_part_t, ptr %18, i32 0, i32 6
  %20 = load ptr, ptr %19, align 8, !tbaa !34
  %21 = icmp ne ptr %20, null
  br i1 %21, label %22, label %65

22:                                               ; preds = %6
  %23 = load ptr, ptr %9, align 8, !tbaa !8
  %24 = getelementptr inbounds nuw %struct._priv_exr_part_t, ptr %23, i32 0, i32 6
  %25 = load ptr, ptr %24, align 8, !tbaa !34
  %26 = icmp ne ptr %25, null
  br i1 %26, label %27, label %63

27:                                               ; preds = %22
  %28 = load ptr, ptr %8, align 8, !tbaa !8
  %29 = getelementptr inbounds nuw %struct._priv_exr_part_t, ptr %28, i32 0, i32 6
  %30 = load ptr, ptr %29, align 8, !tbaa !34
  %31 = getelementptr inbounds nuw %struct.exr_attribute_t, ptr %30, i32 0, i32 5
  %32 = load i32, ptr %31, align 4, !tbaa !30
  %33 = icmp ne i32 %32, 1
  br i1 %33, label %46, label %34

34:                                               ; preds = %27
  %35 = load ptr, ptr %8, align 8, !tbaa !8
  %36 = getelementptr inbounds nuw %struct._priv_exr_part_t, ptr %35, i32 0, i32 6
  %37 = load ptr, ptr %36, align 8, !tbaa !34
  %38 = getelementptr inbounds nuw %struct.exr_attribute_t, ptr %37, i32 0, i32 5
  %39 = load i32, ptr %38, align 4, !tbaa !30
  %40 = load ptr, ptr %9, align 8, !tbaa !8
  %41 = getelementptr inbounds nuw %struct._priv_exr_part_t, ptr %40, i32 0, i32 6
  %42 = load ptr, ptr %41, align 8, !tbaa !34
  %43 = getelementptr inbounds nuw %struct.exr_attribute_t, ptr %42, i32 0, i32 5
  %44 = load i32, ptr %43, align 4, !tbaa !30
  %45 = icmp ne i32 %39, %44
  br i1 %45, label %46, label %47

46:                                               ; preds = %34, %27
  store i32 16, ptr %13, align 4, !tbaa !25
  br label %62

47:                                               ; preds = %34
  %48 = load ptr, ptr %8, align 8, !tbaa !8
  %49 = getelementptr inbounds nuw %struct._priv_exr_part_t, ptr %48, i32 0, i32 6
  %50 = load ptr, ptr %49, align 8, !tbaa !34
  %51 = getelementptr inbounds nuw %struct.exr_attribute_t, ptr %50, i32 0, i32 6
  %52 = load ptr, ptr %51, align 8, !tbaa !27
  %53 = load ptr, ptr %9, align 8, !tbaa !8
  %54 = getelementptr inbounds nuw %struct._priv_exr_part_t, ptr %53, i32 0, i32 6
  %55 = load ptr, ptr %54, align 8, !tbaa !34
  %56 = getelementptr inbounds nuw %struct.exr_attribute_t, ptr %55, i32 0, i32 6
  %57 = load ptr, ptr %56, align 8, !tbaa !27
  %58 = call i32 @memcmp(ptr noundef %52, ptr noundef %57, i64 noundef 16) #8
  %59 = icmp ne i32 %58, 0
  br i1 %59, label %60, label %61

60:                                               ; preds = %47
  store i32 16, ptr %13, align 4, !tbaa !25
  br label %61

61:                                               ; preds = %60, %47
  br label %62

62:                                               ; preds = %61, %46
  br label %64

63:                                               ; preds = %22
  store i32 16, ptr %13, align 4, !tbaa !25
  br label %64

64:                                               ; preds = %63, %62
  br label %72

65:                                               ; preds = %6
  %66 = load ptr, ptr %9, align 8, !tbaa !8
  %67 = getelementptr inbounds nuw %struct._priv_exr_part_t, ptr %66, i32 0, i32 6
  %68 = load ptr, ptr %67, align 8, !tbaa !34
  %69 = icmp ne ptr %68, null
  br i1 %69, label %70, label %71

70:                                               ; preds = %65
  store i32 16, ptr %13, align 4, !tbaa !25
  br label %71

71:                                               ; preds = %70, %65
  br label %72

72:                                               ; preds = %71, %64
  %73 = load i32, ptr %13, align 4, !tbaa !25
  %74 = icmp ne i32 %73, 0
  br i1 %74, label %75, label %81

75:                                               ; preds = %72
  %76 = load ptr, ptr %11, align 8, !tbaa !83
  %77 = load i32, ptr %17, align 4, !tbaa !25
  %78 = add nsw i32 %77, 1
  store i32 %78, ptr %17, align 4, !tbaa !25
  %79 = sext i32 %77 to i64
  %80 = getelementptr inbounds ptr, ptr %76, i64 %79
  store ptr @.str, ptr %80, align 8, !tbaa !68
  br label %81

81:                                               ; preds = %75, %72
  store i32 0, ptr %13, align 4, !tbaa !25
  %82 = load ptr, ptr %8, align 8, !tbaa !8
  %83 = getelementptr inbounds nuw %struct._priv_exr_part_t, ptr %82, i32 0, i32 8
  %84 = load ptr, ptr %83, align 8, !tbaa !37
  %85 = icmp ne ptr %84, null
  br i1 %85, label %86, label %127

86:                                               ; preds = %81
  %87 = load ptr, ptr %9, align 8, !tbaa !8
  %88 = getelementptr inbounds nuw %struct._priv_exr_part_t, ptr %87, i32 0, i32 8
  %89 = load ptr, ptr %88, align 8, !tbaa !37
  %90 = icmp ne ptr %89, null
  br i1 %90, label %91, label %125

91:                                               ; preds = %86
  %92 = load ptr, ptr %8, align 8, !tbaa !8
  %93 = getelementptr inbounds nuw %struct._priv_exr_part_t, ptr %92, i32 0, i32 8
  %94 = load ptr, ptr %93, align 8, !tbaa !37
  %95 = getelementptr inbounds nuw %struct.exr_attribute_t, ptr %94, i32 0, i32 5
  %96 = load i32, ptr %95, align 4, !tbaa !30
  %97 = icmp ne i32 %96, 8
  br i1 %97, label %110, label %98

98:                                               ; preds = %91
  %99 = load ptr, ptr %8, align 8, !tbaa !8
  %100 = getelementptr inbounds nuw %struct._priv_exr_part_t, ptr %99, i32 0, i32 8
  %101 = load ptr, ptr %100, align 8, !tbaa !37
  %102 = getelementptr inbounds nuw %struct.exr_attribute_t, ptr %101, i32 0, i32 5
  %103 = load i32, ptr %102, align 4, !tbaa !30
  %104 = load ptr, ptr %9, align 8, !tbaa !8
  %105 = getelementptr inbounds nuw %struct._priv_exr_part_t, ptr %104, i32 0, i32 8
  %106 = load ptr, ptr %105, align 8, !tbaa !37
  %107 = getelementptr inbounds nuw %struct.exr_attribute_t, ptr %106, i32 0, i32 5
  %108 = load i32, ptr %107, align 4, !tbaa !30
  %109 = icmp ne i32 %103, %108
  br i1 %109, label %110, label %111

110:                                              ; preds = %98, %91
  store i32 16, ptr %13, align 4, !tbaa !25
  br label %124

111:                                              ; preds = %98
  %112 = load ptr, ptr %8, align 8, !tbaa !8
  %113 = getelementptr inbounds nuw %struct._priv_exr_part_t, ptr %112, i32 0, i32 8
  %114 = load ptr, ptr %113, align 8, !tbaa !37
  %115 = getelementptr inbounds nuw %struct.exr_attribute_t, ptr %114, i32 0, i32 6
  %116 = load ptr, ptr %9, align 8, !tbaa !8
  %117 = getelementptr inbounds nuw %struct._priv_exr_part_t, ptr %116, i32 0, i32 8
  %118 = load ptr, ptr %117, align 8, !tbaa !37
  %119 = getelementptr inbounds nuw %struct.exr_attribute_t, ptr %118, i32 0, i32 6
  %120 = call i32 @memcmp(ptr noundef %115, ptr noundef %119, i64 noundef 4) #8
  %121 = icmp ne i32 %120, 0
  br i1 %121, label %122, label %123

122:                                              ; preds = %111
  store i32 16, ptr %13, align 4, !tbaa !25
  br label %123

123:                                              ; preds = %122, %111
  br label %124

124:                                              ; preds = %123, %110
  br label %126

125:                                              ; preds = %86
  store i32 16, ptr %13, align 4, !tbaa !25
  br label %126

126:                                              ; preds = %125, %124
  br label %134

127:                                              ; preds = %81
  %128 = load ptr, ptr %9, align 8, !tbaa !8
  %129 = getelementptr inbounds nuw %struct._priv_exr_part_t, ptr %128, i32 0, i32 8
  %130 = load ptr, ptr %129, align 8, !tbaa !37
  %131 = icmp ne ptr %130, null
  br i1 %131, label %132, label %133

132:                                              ; preds = %127
  store i32 16, ptr %13, align 4, !tbaa !25
  br label %133

133:                                              ; preds = %132, %127
  br label %134

134:                                              ; preds = %133, %126
  %135 = load i32, ptr %13, align 4, !tbaa !25
  %136 = icmp ne i32 %135, 0
  br i1 %136, label %137, label %143

137:                                              ; preds = %134
  %138 = load ptr, ptr %11, align 8, !tbaa !83
  %139 = load i32, ptr %17, align 4, !tbaa !25
  %140 = add nsw i32 %139, 1
  store i32 %140, ptr %17, align 4, !tbaa !25
  %141 = sext i32 %139 to i64
  %142 = getelementptr inbounds ptr, ptr %138, i64 %141
  store ptr @.str.1, ptr %142, align 8, !tbaa !68
  br label %143

143:                                              ; preds = %137, %134
  %144 = load ptr, ptr %7, align 8, !tbaa !3
  %145 = call i32 @exr_get_attribute_by_name(ptr noundef %144, i32 noundef 0, ptr noundef @.str.2, ptr noundef %15)
  store i32 %145, ptr %13, align 4, !tbaa !25
  %146 = load ptr, ptr %7, align 8, !tbaa !3
  %147 = load i32, ptr %10, align 4, !tbaa !25
  %148 = call i32 @exr_get_attribute_by_name(ptr noundef %146, i32 noundef %147, ptr noundef @.str.2, ptr noundef %16)
  store i32 %148, ptr %14, align 4, !tbaa !25
  %149 = load i32, ptr %13, align 4, !tbaa !25
  %150 = icmp eq i32 0, %149
  br i1 %150, label %151, label %182

151:                                              ; preds = %143
  %152 = load i32, ptr %13, align 4, !tbaa !25
  %153 = load i32, ptr %14, align 4, !tbaa !25
  %154 = icmp eq i32 %152, %153
  br i1 %154, label %155, label %182

155:                                              ; preds = %151
  %156 = load ptr, ptr %15, align 8, !tbaa !57
  %157 = getelementptr inbounds nuw %struct.exr_attribute_t, ptr %156, i32 0, i32 5
  %158 = load i32, ptr %157, align 4, !tbaa !30
  %159 = icmp ne i32 %158, 22
  br i1 %159, label %168, label %160

160:                                              ; preds = %155
  %161 = load ptr, ptr %15, align 8, !tbaa !57
  %162 = getelementptr inbounds nuw %struct.exr_attribute_t, ptr %161, i32 0, i32 5
  %163 = load i32, ptr %162, align 4, !tbaa !30
  %164 = load ptr, ptr %16, align 8, !tbaa !57
  %165 = getelementptr inbounds nuw %struct.exr_attribute_t, ptr %164, i32 0, i32 5
  %166 = load i32, ptr %165, align 4, !tbaa !30
  %167 = icmp ne i32 %163, %166
  br i1 %167, label %168, label %169

168:                                              ; preds = %160, %155
  store i32 16, ptr %13, align 4, !tbaa !25
  br label %181

169:                                              ; preds = %160
  %170 = load ptr, ptr %15, align 8, !tbaa !57
  %171 = getelementptr inbounds nuw %struct.exr_attribute_t, ptr %170, i32 0, i32 6
  %172 = load ptr, ptr %171, align 8, !tbaa !27
  %173 = load ptr, ptr %16, align 8, !tbaa !57
  %174 = getelementptr inbounds nuw %struct.exr_attribute_t, ptr %173, i32 0, i32 6
  %175 = load ptr, ptr %174, align 8, !tbaa !27
  %176 = call i32 @memcmp(ptr noundef %172, ptr noundef %175, i64 noundef 8) #8
  %177 = icmp ne i32 %176, 0
  br i1 %177, label %178, label %179

178:                                              ; preds = %169
  store i32 16, ptr %13, align 4, !tbaa !25
  br label %180

179:                                              ; preds = %169
  store i32 0, ptr %13, align 4, !tbaa !25
  br label %180

180:                                              ; preds = %179, %178
  br label %181

181:                                              ; preds = %180, %168
  br label %188

182:                                              ; preds = %151, %143
  %183 = load i32, ptr %14, align 4, !tbaa !25
  %184 = icmp eq i32 0, %183
  br i1 %184, label %185, label %186

185:                                              ; preds = %182
  store i32 16, ptr %13, align 4, !tbaa !25
  br label %187

186:                                              ; preds = %182
  store i32 0, ptr %13, align 4, !tbaa !25
  br label %187

187:                                              ; preds = %186, %185
  br label %188

188:                                              ; preds = %187, %181
  %189 = load i32, ptr %13, align 4, !tbaa !25
  %190 = icmp ne i32 %189, 0
  br i1 %190, label %191, label %197

191:                                              ; preds = %188
  %192 = load ptr, ptr %11, align 8, !tbaa !83
  %193 = load i32, ptr %17, align 4, !tbaa !25
  %194 = add nsw i32 %193, 1
  store i32 %194, ptr %17, align 4, !tbaa !25
  %195 = sext i32 %193 to i64
  %196 = getelementptr inbounds ptr, ptr %192, i64 %195
  store ptr @.str.2, ptr %196, align 8, !tbaa !68
  br label %197

197:                                              ; preds = %191, %188
  %198 = load ptr, ptr %7, align 8, !tbaa !3
  %199 = call i32 @exr_get_attribute_by_name(ptr noundef %198, i32 noundef 0, ptr noundef @.str.3, ptr noundef %15)
  store i32 %199, ptr %13, align 4, !tbaa !25
  %200 = load ptr, ptr %7, align 8, !tbaa !3
  %201 = load i32, ptr %10, align 4, !tbaa !25
  %202 = call i32 @exr_get_attribute_by_name(ptr noundef %200, i32 noundef %201, ptr noundef @.str.3, ptr noundef %16)
  store i32 %202, ptr %14, align 4, !tbaa !25
  %203 = load i32, ptr %13, align 4, !tbaa !25
  %204 = icmp eq i32 0, %203
  br i1 %204, label %205, label %236

205:                                              ; preds = %197
  %206 = load i32, ptr %13, align 4, !tbaa !25
  %207 = load i32, ptr %14, align 4, !tbaa !25
  %208 = icmp eq i32 %206, %207
  br i1 %208, label %209, label %236

209:                                              ; preds = %205
  %210 = load ptr, ptr %15, align 8, !tbaa !57
  %211 = getelementptr inbounds nuw %struct.exr_attribute_t, ptr %210, i32 0, i32 5
  %212 = load i32, ptr %211, align 4, !tbaa !30
  %213 = icmp ne i32 %212, 4
  br i1 %213, label %222, label %214

214:                                              ; preds = %209
  %215 = load ptr, ptr %15, align 8, !tbaa !57
  %216 = getelementptr inbounds nuw %struct.exr_attribute_t, ptr %215, i32 0, i32 5
  %217 = load i32, ptr %216, align 4, !tbaa !30
  %218 = load ptr, ptr %16, align 8, !tbaa !57
  %219 = getelementptr inbounds nuw %struct.exr_attribute_t, ptr %218, i32 0, i32 5
  %220 = load i32, ptr %219, align 4, !tbaa !30
  %221 = icmp ne i32 %217, %220
  br i1 %221, label %222, label %223

222:                                              ; preds = %214, %209
  store i32 16, ptr %13, align 4, !tbaa !25
  br label %235

223:                                              ; preds = %214
  %224 = load ptr, ptr %15, align 8, !tbaa !57
  %225 = getelementptr inbounds nuw %struct.exr_attribute_t, ptr %224, i32 0, i32 6
  %226 = load ptr, ptr %225, align 8, !tbaa !27
  %227 = load ptr, ptr %16, align 8, !tbaa !57
  %228 = getelementptr inbounds nuw %struct.exr_attribute_t, ptr %227, i32 0, i32 6
  %229 = load ptr, ptr %228, align 8, !tbaa !27
  %230 = call i32 @memcmp(ptr noundef %226, ptr noundef %229, i64 noundef 32) #8
  %231 = icmp ne i32 %230, 0
  br i1 %231, label %232, label %233

232:                                              ; preds = %223
  store i32 16, ptr %13, align 4, !tbaa !25
  br label %234

233:                                              ; preds = %223
  store i32 0, ptr %13, align 4, !tbaa !25
  br label %234

234:                                              ; preds = %233, %232
  br label %235

235:                                              ; preds = %234, %222
  br label %242

236:                                              ; preds = %205, %197
  %237 = load i32, ptr %14, align 4, !tbaa !25
  %238 = icmp eq i32 0, %237
  br i1 %238, label %239, label %240

239:                                              ; preds = %236
  store i32 16, ptr %13, align 4, !tbaa !25
  br label %241

240:                                              ; preds = %236
  store i32 0, ptr %13, align 4, !tbaa !25
  br label %241

241:                                              ; preds = %240, %239
  br label %242

242:                                              ; preds = %241, %235
  %243 = load i32, ptr %13, align 4, !tbaa !25
  %244 = icmp ne i32 %243, 0
  br i1 %244, label %245, label %251

245:                                              ; preds = %242
  %246 = load ptr, ptr %11, align 8, !tbaa !83
  %247 = load i32, ptr %17, align 4, !tbaa !25
  %248 = add nsw i32 %247, 1
  store i32 %248, ptr %17, align 4, !tbaa !25
  %249 = sext i32 %247 to i64
  %250 = getelementptr inbounds ptr, ptr %246, i64 %249
  store ptr @.str.3, ptr %250, align 8, !tbaa !68
  br label %251

251:                                              ; preds = %245, %242
  %252 = load i32, ptr %17, align 4, !tbaa !25
  %253 = load ptr, ptr %12, align 8, !tbaa !85
  store i32 %252, ptr %253, align 4, !tbaa !25
  %254 = load i32, ptr %17, align 4, !tbaa !25
  %255 = icmp eq i32 %254, 0
  %256 = select i1 %255, i32 0, i32 16
  call void @llvm.lifetime.end.p0(i64 4, ptr %17) #7
  call void @llvm.lifetime.end.p0(i64 8, ptr %16) #7
  call void @llvm.lifetime.end.p0(i64 8, ptr %15) #7
  call void @llvm.lifetime.end.p0(i64 4, ptr %14) #7
  call void @llvm.lifetime.end.p0(i64 4, ptr %13) #7
  ret i32 %256
}