; Function Attrs: nounwind uwtable
define hidden range(i32 0, 17) i32 @internal_exr_validate_shared_attrs(ptr noundef %0, ptr noundef readonly captures(none) %1, ptr noundef readonly captures(none) %2, i32 noundef %3, ptr noundef writeonly captures(none) %4, ptr noundef writeonly captures(none) initializes((0, 4)) %5) local_unnamed_addr #0 {
  %7 = alloca ptr, align 8
  %8 = alloca ptr, align 8
  call void @llvm.lifetime.start.p0(i64 8, ptr nonnull %7) #7
  call void @llvm.lifetime.start.p0(i64 8, ptr nonnull %8) #7
  %9 = getelementptr inbounds nuw i8, ptr %1, i64 56
  %10 = load ptr, ptr %9, align 8, !tbaa !29
  %.not = icmp eq ptr %10, null
  %11 = getelementptr inbounds nuw i8, ptr %2, i64 56
  %12 = load ptr, ptr %11, align 8, !tbaa !29
  %.not58 = icmp eq ptr %12, null
  br i1 %.not, label %25, label %13

13:                                               ; preds = %6
  br i1 %.not58, label %.critedge, label %14

14:                                               ; preds = %13
  %15 = getelementptr inbounds nuw i8, ptr %10, i64 20
  %16 = load i32, ptr %15, align 4, !tbaa !24
  %.not60 = icmp eq i32 %16, 1
  br i1 %.not60, label %17, label %.critedge

17:                                               ; preds = %14
  %18 = getelementptr inbounds nuw i8, ptr %12, i64 20
  %19 = load i32, ptr %18, align 4, !tbaa !24
  %.not61 = icmp eq i32 %19, 1
  br i1 %.not61, label %20, label %.critedge

20:                                               ; preds = %17
  %21 = getelementptr inbounds nuw i8, ptr %10, i64 24
  %22 = load ptr, ptr %21, align 8, !tbaa !27
  %23 = getelementptr inbounds nuw i8, ptr %12, i64 24
  %24 = load ptr, ptr %23, align 8, !tbaa !27
  %bcmp = tail call i32 @bcmp(ptr noundef nonnull dereferenceable(16) %22, ptr noundef nonnull dereferenceable(16) %24, i64 16)
  %.not62 = icmp eq i32 %bcmp, 0
  br i1 %.not62, label %26, label %.critedge

25:                                               ; preds = %6
  br i1 %.not58, label %26, label %.critedge

.critedge:                                        ; preds = %20, %17, %14, %13, %25
  store ptr @.str, ptr %4, align 8, !tbaa !71
  br label %26

26:                                               ; preds = %20, %.critedge, %25
  %.0 = phi i32 [ 1, %.critedge ], [ 0, %25 ], [ 0, %20 ]
  %27 = getelementptr inbounds nuw i8, ptr %1, i64 72
  %28 = load ptr, ptr %27, align 8, !tbaa !33
  %.not64 = icmp eq ptr %28, null
  %29 = getelementptr inbounds nuw i8, ptr %2, i64 72
  %30 = load ptr, ptr %29, align 8, !tbaa !33
  %.not65 = icmp eq ptr %30, null
  br i1 %.not64, label %41, label %31

31:                                               ; preds = %26
  br i1 %.not65, label %.critedge86, label %32

32:                                               ; preds = %31
  %33 = getelementptr inbounds nuw i8, ptr %28, i64 20
  %34 = load i32, ptr %33, align 4, !tbaa !24
  %.not67 = icmp eq i32 %34, 8
  br i1 %.not67, label %35, label %.critedge86

35:                                               ; preds = %32
  %36 = getelementptr inbounds nuw i8, ptr %30, i64 20
  %37 = load i32, ptr %36, align 4, !tbaa !24
  %.not68 = icmp eq i32 %37, 8
  br i1 %.not68, label %38, label %.critedge86

38:                                               ; preds = %35
  %39 = getelementptr inbounds nuw i8, ptr %28, i64 24
  %40 = getelementptr inbounds nuw i8, ptr %30, i64 24
  %bcmp69 = tail call i32 @bcmp(ptr noundef nonnull dereferenceable(4) %39, ptr noundef nonnull dereferenceable(4) %40, i64 4)
  %.not70 = icmp eq i32 %bcmp69, 0
  br i1 %.not70, label %45, label %.critedge86

41:                                               ; preds = %26
  br i1 %.not65, label %45, label %.critedge86

.critedge86:                                      ; preds = %38, %35, %32, %31, %41
  %42 = add nuw nsw i32 %.0, 1
  %43 = zext nneg i32 %.0 to i64
  %44 = getelementptr inbounds nuw ptr, ptr %4, i64 %43
  store ptr @.str.1, ptr %44, align 8, !tbaa !71
  br label %45

45:                                               ; preds = %38, %.critedge86, %41
  %.1 = phi i32 [ %42, %.critedge86 ], [ %.0, %41 ], [ %.0, %38 ]
  %46 = call i32 @exr_get_attribute_by_name(ptr noundef %0, i32 noundef 0, ptr noundef nonnull @.str.2, ptr noundef nonnull %7) #7
  %47 = call i32 @exr_get_attribute_by_name(ptr noundef %0, i32 noundef %3, ptr noundef nonnull @.str.2, ptr noundef nonnull %8) #7
  %48 = icmp eq i32 %46, 0
  %49 = icmp eq i32 %47, 0
  %or.cond = select i1 %48, i1 %49, i1 false
  br i1 %or.cond, label %50, label %63

50:                                               ; preds = %45
  %51 = load ptr, ptr %7, align 8, !tbaa !72
  %52 = getelementptr inbounds nuw i8, ptr %51, i64 20
  %53 = load i32, ptr %52, align 4, !tbaa !24
  %.not72 = icmp eq i32 %53, 22
  br i1 %.not72, label %54, label %.critedge89

54:                                               ; preds = %50
  %55 = load ptr, ptr %8, align 8, !tbaa !72
  %56 = getelementptr inbounds nuw i8, ptr %55, i64 20
  %57 = load i32, ptr %56, align 4, !tbaa !24
  %.not73 = icmp eq i32 %57, 22
  br i1 %.not73, label %58, label %.critedge89

58:                                               ; preds = %54
  %59 = getelementptr inbounds nuw i8, ptr %51, i64 24
  %60 = load ptr, ptr %59, align 8, !tbaa !27
  %61 = getelementptr inbounds nuw i8, ptr %55, i64 24
  %62 = load ptr, ptr %61, align 8, !tbaa !27
  %bcmp74 = call i32 @bcmp(ptr noundef nonnull dereferenceable(8) %60, ptr noundef nonnull dereferenceable(8) %62, i64 8)
  %.not75 = icmp eq i32 %bcmp74, 0
  br i1 %.not75, label %67, label %.critedge89

63:                                               ; preds = %45
  br i1 %49, label %.critedge89, label %67

.critedge89:                                      ; preds = %58, %54, %50, %63
  %64 = add nuw nsw i32 %.1, 1
  %65 = zext nneg i32 %.1 to i64
  %66 = getelementptr inbounds nuw ptr, ptr %4, i64 %65
  store ptr @.str.2, ptr %66, align 8, !tbaa !71
  br label %67

67:                                               ; preds = %58, %.critedge89, %63
  %.2 = phi i32 [ %64, %.critedge89 ], [ %.1, %63 ], [ %.1, %58 ]
  %68 = call i32 @exr_get_attribute_by_name(ptr noundef %0, i32 noundef 0, ptr noundef nonnull @.str.3, ptr noundef nonnull %7) #7
  %69 = call i32 @exr_get_attribute_by_name(ptr noundef %0, i32 noundef %3, ptr noundef nonnull @.str.3, ptr noundef nonnull %8) #7
  %70 = icmp eq i32 %68, 0
  %71 = icmp eq i32 %69, 0
  %or.cond90 = select i1 %70, i1 %71, i1 false
  br i1 %or.cond90, label %72, label %85

72:                                               ; preds = %67
  %73 = load ptr, ptr %7, align 8, !tbaa !72
  %74 = getelementptr inbounds nuw i8, ptr %73, i64 20
  %75 = load i32, ptr %74, align 4, !tbaa !24
  %.not77 = icmp eq i32 %75, 4
  br i1 %.not77, label %76, label %.critedge94

76:                                               ; preds = %72
  %77 = load ptr, ptr %8, align 8, !tbaa !72
  %78 = getelementptr inbounds nuw i8, ptr %77, i64 20
  %79 = load i32, ptr %78, align 4, !tbaa !24
  %.not78 = icmp eq i32 %79, 4
  br i1 %.not78, label %80, label %.critedge94

80:                                               ; preds = %76
  %81 = getelementptr inbounds nuw i8, ptr %73, i64 24
  %82 = load ptr, ptr %81, align 8, !tbaa !27
  %83 = getelementptr inbounds nuw i8, ptr %77, i64 24
  %84 = load ptr, ptr %83, align 8, !tbaa !27
  %bcmp79 = call i32 @bcmp(ptr noundef nonnull dereferenceable(32) %82, ptr noundef nonnull dereferenceable(32) %84, i64 32)
  %.not80 = icmp eq i32 %bcmp79, 0
  br i1 %.not80, label %89, label %.critedge94

85:                                               ; preds = %67
  br i1 %71, label %.critedge94, label %89

.critedge94:                                      ; preds = %80, %76, %72, %85
  %86 = add nuw nsw i32 %.2, 1
  %87 = zext nneg i32 %.2 to i64
  %88 = getelementptr inbounds nuw ptr, ptr %4, i64 %87
  store ptr @.str.3, ptr %88, align 8, !tbaa !71
  br label %89

89:                                               ; preds = %80, %.critedge94, %85
  %.3 = phi i32 [ %86, %.critedge94 ], [ %.2, %85 ], [ %.2, %80 ]
  store i32 %.3, ptr %5, align 4, !tbaa !31
  %90 = icmp eq i32 %.3, 0
  %91 = select i1 %90, i32 0, i32 16
  call void @llvm.lifetime.end.p0(i64 8, ptr nonnull %8) #7
  call void @llvm.lifetime.end.p0(i64 8, ptr nonnull %7) #7
  ret i32 %91
}